; Function Attrs: mustprogress uwtable
define noundef nonnull ptr @pkpy_new_repl(ptr noundef %0) local_unnamed_addr #4 personality ptr @__gxx_personality_v0 {
  %2 = tail call noalias noundef nonnull dereferenceable(48) ptr @_Znwm(i64 noundef 48) #30
  invoke void @_ZN4pkpy4REPLC1EPNS_2VME(ptr noundef nonnull align 8 dereferenceable(48) %2, ptr noundef %0)
          to label %3 unwind label %4

3:                                                ; preds = %1
  ret ptr %2

4:                                                ; preds = %1
  %5 = landingpad { ptr, i32 }
          cleanup
  tail call void @_ZdlPvm(ptr noundef nonnull %2, i64 noundef 48) #31
  resume { ptr, i32 } %5
}